; Function Attrs: mustprogress uwtable
define void @_ZN3nix25assertLibStoreInitializedEv() local_unnamed_addr #5 personality ptr @__gxx_personality_v0 {
  %1 = alloca %"class.std::__cxx11::basic_string", align 8
  %.b3 = load i1, ptr @_ZN3nixL16initLibStoreDoneE, align 1
  br i1 %.b3, label %17, label %2

2:                                                ; preds = %0
  %3 = load i32, ptr @_ZN3nix9verbosityE, align 4
  %4 = icmp sgt i32 %3, -1
  br i1 %4, label %5, label %16

5:                                                ; preds = %2
  %6 = load ptr, ptr @_ZN3nix6loggerE, align 8
  call void @_ZN3nix3fmtB5cxx11EPKc(ptr dead_on_unwind nonnull writable sret(%"class.std::__cxx11::basic_string") align 8 %1, ptr noundef nonnull @.str.243)
  %7 = load ptr, ptr %1, align 8
  %8 = getelementptr inbounds i8, ptr %1, i64 8
  %9 = load i64, ptr %8, align 8
  %10 = load ptr, ptr %6, align 8
  %11 = getelementptr inbounds i8, ptr %10, i64 48
  %12 = load ptr, ptr %11, align 8
  invoke void %12(ptr noundef nonnull align 8 dereferenceable(8) %6, i32 noundef 0, i64 %9, ptr %7)
          to label %13 unwind label %14

13:                                               ; preds = %5
  call void @_ZNSt7__cxx1112basic_stringIcSt11char_traitsIcESaIcEED2Ev(ptr noundef nonnull align 8 dereferenceable(32) %1) #28
  br label %16

14:                                               ; preds = %5
  %15 = landingpad { ptr, i32 }
          cleanup
  call void @_ZNSt7__cxx1112basic_stringIcSt11char_traitsIcESaIcEED2Ev(ptr noundef nonnull align 8 dereferenceable(32) %1) #28
  resume { ptr, i32 } %15

16:                                               ; preds = %2, %13
  call void @abort() #30
  unreachable

17:                                               ; preds = %0
  ret void
}